; Function Attrs: mustprogress nounwind uwtable
define void @_ZN9grpc_core29FakeResolverResponseGeneratorD2Ev(ptr noundef nonnull align 8 dereferenceable(185) %this) unnamed_addr #4 align 2 personality ptr @__gxx_personality_v0 {
entry:
  store ptr getelementptr inbounds ({ [4 x ptr] }, ptr @_ZTVN9grpc_core29FakeResolverResponseGeneratorE, i64 0, i32 0, i64 2), ptr %this, align 8
  %reresolution_mu_ = getelementptr inbounds i8, ptr %this, i64 168
  tail call void @_ZN4absl12lts_202308025MutexD1Ev(ptr noundef nonnull align 8 dereferenceable(8) %reresolution_mu_) #17
  %_M_engaged.i.i.i.i = getelementptr inbounds i8, ptr %this, i64 160
  %0 = load i8, ptr %_M_engaged.i.i.i.i, align 8
  %1 = and i8 %0, 1
  %tobool.not.i.i.i.i = icmp eq i8 %1, 0
  br i1 %tobool.not.i.i.i.i, label %_ZNSt8optionalIN9grpc_core8Resolver6ResultEED2Ev.exit, label %if.then.i.i.i.i

if.then.i.i.i.i:                                  ; preds = %entry
  %result_ = getelementptr inbounds i8, ptr %this, i64 40
  store i8 0, ptr %_M_engaged.i.i.i.i, align 8
  tail call void @_ZN9grpc_core8Resolver6ResultD2Ev(ptr noundef nonnull align 8 dereferenceable(120) %result_) #17
  br label %_ZNSt8optionalIN9grpc_core8Resolver6ResultEED2Ev.exit

_ZNSt8optionalIN9grpc_core8Resolver6ResultEED2Ev.exit: ; preds = %entry, %if.then.i.i.i.i
  %resolver_ = getelementptr inbounds i8, ptr %this, i64 32
  %2 = load ptr, ptr %resolver_, align 8
  %cmp.not.i = icmp eq ptr %2, null
  br i1 %cmp.not.i, label %_ZN9grpc_core13RefCountedPtrINS_12FakeResolverEED2Ev.exit, label %if.then.i

if.then.i:                                        ; preds = %_ZNSt8optionalIN9grpc_core8Resolver6ResultEED2Ev.exit
  %refs_.i.i = getelementptr inbounds i8, ptr %2, i64 8
  %3 = atomicrmw sub ptr %refs_.i.i, i64 1 acq_rel, align 8
  %cmp.i.i.i = icmp eq i64 %3, 1
  br i1 %cmp.i.i.i, label %if.then.i.i, label %_ZN9grpc_core13RefCountedPtrINS_12FakeResolverEED2Ev.exit

if.then.i.i:                                      ; preds = %if.then.i
  %vtable.i.i.i = load ptr, ptr %2, align 8
  %vfn.i.i.i = getelementptr inbounds i8, ptr %vtable.i.i.i, i64 16
  %4 = load ptr, ptr %vfn.i.i.i, align 8
  tail call void %4(ptr noundef nonnull align 8 dereferenceable(16) %2) #17
  br label %_ZN9grpc_core13RefCountedPtrINS_12FakeResolverEED2Ev.exit

_ZN9grpc_core13RefCountedPtrINS_12FakeResolverEED2Ev.exit: ; preds = %_ZNSt8optionalIN9grpc_core8Resolver6ResultEED2Ev.exit, %if.then.i, %if.then.i.i
  %mu_ = getelementptr inbounds i8, ptr %this, i64 16
  tail call void @_ZN4absl12lts_202308025MutexD1Ev(ptr noundef nonnull align 8 dereferenceable(8) %mu_) #17
  ret void
}